; Function Attrs: nounwind uwtable
define i24 @lv_theme_get_color_secondary(ptr noundef %0) local_unnamed_addr #0 {
  %.not.i = icmp eq ptr %0, null
  br i1 %.not.i, label %4, label %2

2:                                                ; preds = %1
  %3 = tail call ptr @lv_obj_get_display(ptr noundef nonnull %0) #3
  br label %lv_theme_get_from_obj.exit

4:                                                ; preds = %1
  %5 = tail call ptr @lv_display_get_default() #3
  br label %lv_theme_get_from_obj.exit

lv_theme_get_from_obj.exit:                       ; preds = %2, %4
  %6 = phi ptr [ %3, %2 ], [ %5, %4 ]
  %7 = tail call ptr @lv_display_get_theme(ptr noundef %6) #3
  %.not = icmp eq ptr %7, null
  br i1 %.not, label %10, label %8

8:                                                ; preds = %lv_theme_get_from_obj.exit
  %9 = getelementptr inbounds nuw i8, ptr %7, i64 35
  %.sroa.0.0.copyload = load i24, ptr %9, align 1
  br label %12

10:                                               ; preds = %lv_theme_get_from_obj.exit
  %11 = tail call i24 @lv_palette_main(i32 noundef 5) #3
  br label %12

12:                                               ; preds = %10, %8
  %.sroa.0.0 = phi i24 [ %.sroa.0.0.copyload, %8 ], [ %11, %10 ]
  ret i24 %.sroa.0.0
}